target datalayout = "e-m:e-p270:32:32-p271:32:32-p272:64:64-i64:64-i128:128-f80:128-n8:16:32:64-S128"
target triple = "x86_64-pc-linux-gnu"

%struct.quic_rcidm_st = type { %struct.quic_conn_id_st, %struct.quic_conn_id_st, %struct.quic_conn_id_st, i64, i64, i64, ptr, ptr, %struct.ossl_list_st_retiring, i64, i8 }
%struct.quic_conn_id_st = type { i8, [20 x i8] }
%struct.ossl_list_st_retiring = type { ptr, ptr, i64 }
%struct.rcid_st = type { %struct.anon, %struct.quic_conn_id_st, i64, i64, i8 }
%struct.anon = type { ptr, ptr }

@.str = private unnamed_addr constant [33 x i8] c"../openssl/ssl/quic/quic_rcidm.c\00", align 1

; Function Attrs: inlinehint nounwind uwtable
define internal void @ossl_list_retiring_remove(ptr noundef %0, ptr noundef %1) #3 {
  %3 = alloca ptr, align 8
  %4 = alloca ptr, align 8
  store ptr %0, ptr %3, align 8, !tbaa !30
  store ptr %1, ptr %4, align 8, !tbaa !21
  %5 = load ptr, ptr %3, align 8, !tbaa !30
  %6 = getelementptr inbounds nuw %struct.ossl_list_st_retiring, ptr %5, i32 0, i32 0
  %7 = load ptr, ptr %6, align 8, !tbaa !32
  %8 = load ptr, ptr %4, align 8, !tbaa !21
  %9 = icmp eq ptr %7, %8
  br i1 %9, label %10, label %17

10:                                               ; preds = %2
  %11 = load ptr, ptr %4, align 8, !tbaa !21
  %12 = getelementptr inbounds nuw %struct.rcid_st, ptr %11, i32 0, i32 0
  %13 = getelementptr inbounds nuw %struct.anon, ptr %12, i32 0, i32 0
  %14 = load ptr, ptr %13, align 8, !tbaa !33
  %15 = load ptr, ptr %3, align 8, !tbaa !30
  %16 = getelementptr inbounds nuw %struct.ossl_list_st_retiring, ptr %15, i32 0, i32 0
  store ptr %14, ptr %16, align 8, !tbaa !32
  br label %17

17:                                               ; preds = %10, %2
  %18 = load ptr, ptr %3, align 8, !tbaa !30
  %19 = getelementptr inbounds nuw %struct.ossl_list_st_retiring, ptr %18, i32 0, i32 1
  %20 = load ptr, ptr %19, align 8, !tbaa !50
  %21 = load ptr, ptr %4, align 8, !tbaa !21
  %22 = icmp eq ptr %20, %21
  br i1 %22, label %23, label %30

23:                                               ; preds = %17
  %24 = load ptr, ptr %4, align 8, !tbaa !21
  %25 = getelementptr inbounds nuw %struct.rcid_st, ptr %24, i32 0, i32 0
  %26 = getelementptr inbounds nuw %struct.anon, ptr %25, i32 0, i32 1
  %27 = load ptr, ptr %26, align 8, !tbaa !51
  %28 = load ptr, ptr %3, align 8, !tbaa !30
  %29 = getelementptr inbounds nuw %struct.ossl_list_st_retiring, ptr %28, i32 0, i32 1
  store ptr %27, ptr %29, align 8, !tbaa !50
  br label %30

30:                                               ; preds = %23, %17
  %31 = load ptr, ptr %4, align 8, !tbaa !21
  %32 = getelementptr inbounds nuw %struct.rcid_st, ptr %31, i32 0, i32 0
  %33 = getelementptr inbounds nuw %struct.anon, ptr %32, i32 0, i32 1
  %34 = load ptr, ptr %33, align 8, !tbaa !51
  %35 = icmp ne ptr %34, null
  br i1 %35, label %36, label %47

36:                                               ; preds = %30
  %37 = load ptr, ptr %4, align 8, !tbaa !21
  %38 = getelementptr inbounds nuw %struct.rcid_st, ptr %37, i32 0, i32 0
  %39 = getelementptr inbounds nuw %struct.anon, ptr %38, i32 0, i32 0
  %40 = load ptr, ptr %39, align 8, !tbaa !33
  %41 = load ptr, ptr %4, align 8, !tbaa !21
  %42 = getelementptr inbounds nuw %struct.rcid_st, ptr %41, i32 0, i32 0
  %43 = getelementptr inbounds nuw %struct.anon, ptr %42, i32 0, i32 1
  %44 = load ptr, ptr %43, align 8, !tbaa !51
  %45 = getelementptr inbounds nuw %struct.rcid_st, ptr %44, i32 0, i32 0
  %46 = getelementptr inbounds nuw %struct.anon, ptr %45, i32 0, i32 0
  store ptr %40, ptr %46, align 8, !tbaa !33
  br label %47

47:                                               ; preds = %36, %30
  %48 = load ptr, ptr %4, align 8, !tbaa !21
  %49 = getelementptr inbounds nuw %struct.rcid_st, ptr %48, i32 0, i32 0
  %50 = getelementptr inbounds nuw %struct.anon, ptr %49, i32 0, i32 0
  %51 = load ptr, ptr %50, align 8, !tbaa !33
  %52 = icmp ne ptr %51, null
  br i1 %52, label %53, label %64

53:                                               ; preds = %47
  %54 = load ptr, ptr %4, align 8, !tbaa !21
  %55 = getelementptr inbounds nuw %struct.rcid_st, ptr %54, i32 0, i32 0
  %56 = getelementptr inbounds nuw %struct.anon, ptr %55, i32 0, i32 1
  %57 = load ptr, ptr %56, align 8, !tbaa !51
  %58 = load ptr, ptr %4, align 8, !tbaa !21
  %59 = getelementptr inbounds nuw %struct.rcid_st, ptr %58, i32 0, i32 0
  %60 = getelementptr inbounds nuw %struct.anon, ptr %59, i32 0, i32 0
  %61 = load ptr, ptr %60, align 8, !tbaa !33
  %62 = getelementptr inbounds nuw %struct.rcid_st, ptr %61, i32 0, i32 0
  %63 = getelementptr inbounds nuw %struct.anon, ptr %62, i32 0, i32 1
  store ptr %57, ptr %63, align 8, !tbaa !51
  br label %64

64:                                               ; preds = %53, %47
  %65 = load ptr, ptr %3, align 8, !tbaa !30
  %66 = getelementptr inbounds nuw %struct.ossl_list_st_retiring, ptr %65, i32 0, i32 2
  %67 = load i64, ptr %66, align 8, !tbaa !52
  %68 = add i64 %67, -1
  store i64 %68, ptr %66, align 8, !tbaa !52
  %69 = load ptr, ptr %4, align 8, !tbaa !21
  %70 = getelementptr inbounds nuw %struct.rcid_st, ptr %69, i32 0, i32 0
  call void @llvm.memset.p0.i64(ptr align 8 %70, i8 0, i64 16, i1 false)
  ret void
}

; Function Attrs: inlinehint nounwind uwtable
define internal ptr @ossl_pqueue_RCID_remove(ptr noundef %0, i64 noundef %1) #3 {
  %3 = alloca ptr, align 8
  %4 = alloca i64, align 8
  store ptr %0, ptr %3, align 8, !tbaa !29
  store i64 %1, ptr %4, align 8, !tbaa !34
  %5 = load ptr, ptr %3, align 8, !tbaa !29
  %6 = load i64, ptr %4, align 8, !tbaa !34
  %7 = call ptr @ossl_pqueue_remove(ptr noundef %5, i64 noundef %6)
  ret ptr %7
}

; Function Attrs: nounwind uwtable
define internal void @rcidm_check_rcid(ptr noundef %0, ptr noundef %1) #0 {
  %3 = alloca ptr, align 8
  %4 = alloca ptr, align 8
  store ptr %0, ptr %3, align 8, !tbaa !8
  store ptr %1, ptr %4, align 8, !tbaa !21
  ret void
}

; Function Attrs: nounwind uwtable
define internal void @rcidm_free_rcid(ptr noundef %0, ptr noundef %1) #0 {
  %3 = alloca ptr, align 8
  %4 = alloca ptr, align 8
  store ptr %0, ptr %3, align 8, !tbaa !8
  store ptr %1, ptr %4, align 8, !tbaa !21
  %5 = load ptr, ptr %4, align 8, !tbaa !21
  %6 = icmp eq ptr %5, null
  br i1 %6, label %7, label %8

7:                                                ; preds = %2
  br label %38

8:                                                ; preds = %2
  %9 = load ptr, ptr %3, align 8, !tbaa !8
  %10 = load ptr, ptr %4, align 8, !tbaa !21
  call void @rcidm_check_rcid(ptr noundef %9, ptr noundef %10)
  %11 = load ptr, ptr %4, align 8, !tbaa !21
  %12 = getelementptr inbounds nuw %struct.rcid_st, ptr %11, i32 0, i32 4
  %13 = load i8, ptr %12, align 8
  %14 = and i8 %13, 3
  %15 = zext i8 %14 to i32
  switch i32 %15, label %35 [
    i32 0, label %16
    i32 1, label %24
    i32 2, label %27
  ]

16:                                               ; preds = %8
  %17 = load ptr, ptr %3, align 8, !tbaa !8
  %18 = getelementptr inbounds nuw %struct.quic_rcidm_st, ptr %17, i32 0, i32 6
  %19 = load ptr, ptr %18, align 8, !tbaa !10
  %20 = load ptr, ptr %4, align 8, !tbaa !21
  %21 = getelementptr inbounds nuw %struct.rcid_st, ptr %20, i32 0, i32 3
  %22 = load i64, ptr %21, align 8, !tbaa !40
  %23 = call ptr @ossl_pqueue_RCID_remove(ptr noundef %19, i64 noundef %22)
  br label %36

24:                                               ; preds = %8
  %25 = load ptr, ptr %3, align 8, !tbaa !8
  %26 = getelementptr inbounds nuw %struct.quic_rcidm_st, ptr %25, i32 0, i32 7
  store ptr null, ptr %26, align 8, !tbaa !25
  br label %36

27:                                               ; preds = %8
  %28 = load ptr, ptr %3, align 8, !tbaa !8
  %29 = getelementptr inbounds nuw %struct.quic_rcidm_st, ptr %28, i32 0, i32 8
  %30 = load ptr, ptr %4, align 8, !tbaa !21
  call void @ossl_list_retiring_remove(ptr noundef %29, ptr noundef %30)
  %31 = load ptr, ptr %3, align 8, !tbaa !8
  %32 = getelementptr inbounds nuw %struct.quic_rcidm_st, ptr %31, i32 0, i32 9
  %33 = load i64, ptr %32, align 8, !tbaa !38
  %34 = add i64 %33, -1
  store i64 %34, ptr %32, align 8, !tbaa !38
  br label %36

35:                                               ; preds = %8
  br label %36

36:                                               ; preds = %35, %27, %24, %16
  %37 = load ptr, ptr %4, align 8, !tbaa !21
  call void @CRYPTO_free(ptr noundef %37, ptr noundef @.str, i32 noundef 437)
  br label %38

38:                                               ; preds = %36, %7
  ret void
}

; Function Attrs: inlinehint nounwind uwtable
define internal ptr @ossl_list_retiring_head(ptr noundef %0) #3 {
  %2 = alloca ptr, align 8
  store ptr %0, ptr %2, align 8, !tbaa !30
  %3 = load ptr, ptr %2, align 8, !tbaa !30
  %4 = getelementptr inbounds nuw %struct.ossl_list_st_retiring, ptr %3, i32 0, i32 0
  %5 = load ptr, ptr %4, align 8, !tbaa !32
  ret ptr %5
}

; Function Attrs: nounwind uwtable
define internal i32 @rcidm_get_retire(ptr noundef %0, ptr noundef %1, i32 noundef %2) #0 {
  %4 = alloca i32, align 4
  %5 = alloca ptr, align 8
  %6 = alloca ptr, align 8
  %7 = alloca i32, align 4
  %8 = alloca ptr, align 8
  %9 = alloca i32, align 4
  store ptr %0, ptr %5, align 8, !tbaa !8
  store ptr %1, ptr %6, align 8, !tbaa !48
  store i32 %2, ptr %7, align 4, !tbaa !36
  call void @llvm.lifetime.start.p0(i64 8, ptr %8) #7
  %10 = load ptr, ptr %5, align 8, !tbaa !8
  %11 = getelementptr inbounds nuw %struct.quic_rcidm_st, ptr %10, i32 0, i32 8
  %12 = call ptr @ossl_list_retiring_head(ptr noundef %11)
  store ptr %12, ptr %8, align 8, !tbaa !21
  %13 = load ptr, ptr %8, align 8, !tbaa !21
  %14 = icmp eq ptr %13, null
  br i1 %14, label %15, label %16

15:                                               ; preds = %3
  store i32 0, ptr %4, align 4
  store i32 1, ptr %9, align 4
  br label %31

16:                                               ; preds = %3
  %17 = load ptr, ptr %6, align 8, !tbaa !48
  %18 = icmp ne ptr %17, null
  br i1 %18, label %19, label %24

19:                                               ; preds = %16
  %20 = load ptr, ptr %8, align 8, !tbaa !21
  %21 = getelementptr inbounds nuw %struct.rcid_st, ptr %20, i32 0, i32 2
  %22 = load i64, ptr %21, align 8, !tbaa !22
  %23 = load ptr, ptr %6, align 8, !tbaa !48
  store i64 %22, ptr %23, align 8, !tbaa !34
  br label %24

24:                                               ; preds = %19, %16
  %25 = load i32, ptr %7, align 4, !tbaa !36
  %26 = icmp ne i32 %25, 0
  br i1 %26, label %30, label %27

27:                                               ; preds = %24
  %28 = load ptr, ptr %5, align 8, !tbaa !8
  %29 = load ptr, ptr %8, align 8, !tbaa !21
  call void @rcidm_free_rcid(ptr noundef %28, ptr noundef %29)
  br label %30

30:                                               ; preds = %27, %24
  store i32 1, ptr %4, align 4
  store i32 1, ptr %9, align 4
  br label %31

31:                                               ; preds = %30, %15
  call void @llvm.lifetime.end.p0(i64 8, ptr %8) #7
  %32 = load i32, ptr %4, align 4
  ret i32 %32
}

; Function Attrs: nounwind uwtable
define i32 @ossl_quic_rcidm_pop_retire_seq_num(ptr noundef %0, ptr noundef %1) #0 {
  %3 = alloca ptr, align 8
  %4 = alloca ptr, align 8
  store ptr %0, ptr %3, align 8, !tbaa !8
  store ptr %1, ptr %4, align 8, !tbaa !48
  %5 = load ptr, ptr %3, align 8, !tbaa !8
  %6 = load ptr, ptr %4, align 8, !tbaa !48
  %7 = call i32 @rcidm_get_retire(ptr noundef %5, ptr noundef %6, i32 noundef 0)
  ret i32 %7
}