; Function Attrs: nounwind uwtable
define range(i32 0, 2) i32 @ossl_quic_rcidm_pop_retire_seq_num(ptr noundef captures(none) %0, ptr noundef writeonly captures(address_is_null) %1) local_unnamed_addr #0 {
  %3 = getelementptr inbounds nuw i8, ptr %0, i64 104
  %.val.i = load ptr, ptr %3, align 8, !tbaa !23
  %4 = icmp eq ptr %.val.i, null
  br i1 %4, label %rcidm_get_retire.exit, label %5

5:                                                ; preds = %2
  %.not.i = icmp eq ptr %1, null
  br i1 %.not.i, label %9, label %6

6:                                                ; preds = %5
  %7 = getelementptr inbounds nuw i8, ptr %.val.i, i64 40
  %8 = load i64, ptr %7, align 8, !tbaa !16
  store i64 %8, ptr %1, align 8, !tbaa !39
  br label %9

9:                                                ; preds = %6, %5
  %10 = getelementptr inbounds nuw i8, ptr %.val.i, i64 56
  %11 = load i8, ptr %10, align 8
  %12 = and i8 %11, 3
  switch i8 %12, label %default.unreachable [
    i8 0, label %13
    i8 1, label %19
    i8 2, label %21
    i8 3, label %rcidm_free_rcid.exit.i
  ]

13:                                               ; preds = %9
  %14 = getelementptr inbounds nuw i8, ptr %0, i64 88
  %15 = load ptr, ptr %14, align 8, !tbaa !3
  %16 = getelementptr inbounds nuw i8, ptr %.val.i, i64 48
  %17 = load i64, ptr %16, align 8, !tbaa !30
  %18 = tail call ptr @ossl_pqueue_remove(ptr noundef %15, i64 noundef %17) #9
  br label %rcidm_free_rcid.exit.i

19:                                               ; preds = %9
  %20 = getelementptr inbounds nuw i8, ptr %0, i64 96
  store ptr null, ptr %20, align 8, !tbaa !19
  br label %rcidm_free_rcid.exit.i

21:                                               ; preds = %9
  %22 = load ptr, ptr %.val.i, align 8, !tbaa !24
  store ptr %22, ptr %3, align 8, !tbaa !23
  %23 = getelementptr inbounds nuw i8, ptr %0, i64 112
  %24 = load ptr, ptr %23, align 8, !tbaa !31
  %25 = icmp eq ptr %24, %.val.i
  %26 = getelementptr inbounds nuw i8, ptr %.val.i, i64 8
  %27 = load ptr, ptr %26, align 8, !tbaa !32
  br i1 %25, label %28, label %._crit_edge.i.i.i

28:                                               ; preds = %21
  store ptr %27, ptr %23, align 8, !tbaa !31
  br label %._crit_edge.i.i.i

._crit_edge.i.i.i:                                ; preds = %28, %21
  %.not.i.i.i = icmp eq ptr %27, null
  br i1 %.not.i.i.i, label %30, label %29

29:                                               ; preds = %._crit_edge.i.i.i
  store ptr %22, ptr %27, align 8, !tbaa !24
  br label %30

30:                                               ; preds = %29, %._crit_edge.i.i.i
  %.not18.i.i.i = icmp eq ptr %22, null
  br i1 %.not18.i.i.i, label %ossl_list_retiring_remove.exit.i.i, label %31

31:                                               ; preds = %30
  %32 = getelementptr inbounds nuw i8, ptr %22, i64 8
  store ptr %27, ptr %32, align 8, !tbaa !32
  br label %ossl_list_retiring_remove.exit.i.i

ossl_list_retiring_remove.exit.i.i:               ; preds = %31, %30
  %33 = getelementptr inbounds nuw i8, ptr %0, i64 120
  %34 = load i64, ptr %33, align 8, !tbaa !33
  %35 = add i64 %34, -1
  store i64 %35, ptr %33, align 8, !tbaa !33
  tail call void @llvm.memset.p0.i64(ptr noundef nonnull align 8 dereferenceable(16) %.val.i, i8 0, i64 16, i1 false)
  %36 = getelementptr inbounds nuw i8, ptr %0, i64 128
  %37 = load i64, ptr %36, align 8, !tbaa !28
  %38 = add i64 %37, -1
  store i64 %38, ptr %36, align 8, !tbaa !28
  br label %rcidm_free_rcid.exit.i

default.unreachable:                              ; preds = %9
  unreachable

rcidm_free_rcid.exit.i:                           ; preds = %ossl_list_retiring_remove.exit.i.i, %19, %13, %9
  tail call void @CRYPTO_free(ptr noundef nonnull %.val.i, ptr noundef nonnull @.str, i32 noundef 437) #9
  br label %rcidm_get_retire.exit

rcidm_get_retire.exit:                            ; preds = %2, %rcidm_free_rcid.exit.i
  %.0.i = phi i32 [ 0, %2 ], [ 1, %rcidm_free_rcid.exit.i ]
  ret i32 %.0.i
}